; Function Attrs: mustprogress nounwind uwtable
define noundef zeroext i1 @_ZN7glslang12OutputSpvBinERKSt6vectorIjSaIjEEPKc(ptr noundef nonnull readonly align 8 captures(none) dereferenceable(24) %0, ptr noundef %1) local_unnamed_addr #3 {
  %3 = alloca %"class.std::basic_ofstream", align 8
  %4 = alloca i32, align 4
  call void @_ZNSt14basic_ofstreamIcSt11char_traitsIcEEC1Ev(ptr noundef nonnull align 8 dereferenceable(248) %3) #20
  call void @_ZNSt14basic_ofstreamIcSt11char_traitsIcEE4openEPKcSt13_Ios_Openmode(ptr noundef nonnull align 8 dereferenceable(248) %3, ptr noundef %1, i32 noundef 20) #20
  %5 = load ptr, ptr %3, align 8
  %6 = getelementptr i8, ptr %5, i64 -24
  %7 = load i64, ptr %6, align 8
  %8 = getelementptr inbounds i8, ptr %3, i64 %7
  %9 = call noundef zeroext i1 @_ZNKSt9basic_iosIcSt11char_traitsIcEE4failEv(ptr noundef nonnull align 8 dereferenceable(264) %8) #20
  br i1 %9, label %19, label %.preheader

.preheader:                                       ; preds = %2
  %10 = getelementptr inbounds nuw i8, ptr %0, i64 8
  %11 = load ptr, ptr %10, align 8
  %12 = load ptr, ptr %0, align 8
  %13 = ptrtoint ptr %11 to i64
  %14 = ptrtoint ptr %12 to i64
  %15 = sub i64 %13, %14
  %16 = lshr exact i64 %15, 2
  %17 = trunc i64 %16 to i32
  %18 = icmp sgt i32 %17, 0
  br i1 %18, label %.lr.ph, label %._crit_edge

19:                                               ; preds = %2
  %20 = call i32 (ptr, ...) @printf(ptr noundef nonnull dereferenceable(1) @.str.2, ptr noundef %1)
  br label %32

.lr.ph:                                           ; preds = %.preheader, %.lr.ph
  %indvars.iv = phi i64 [ %indvars.iv.next, %.lr.ph ], [ 0, %.preheader ]
  %21 = phi ptr [ %26, %.lr.ph ], [ %12, %.preheader ]
  %22 = getelementptr inbounds nuw i32, ptr %21, i64 %indvars.iv
  %23 = load i32, ptr %22, align 4
  store i32 %23, ptr %4, align 4
  %24 = call noundef nonnull align 8 dereferenceable(8) ptr @_ZNSo5writeEPKcl(ptr noundef nonnull align 8 dereferenceable(8) %3, ptr noundef nonnull %4, i64 noundef 4) #20
  %indvars.iv.next = add nuw nsw i64 %indvars.iv, 1
  %25 = load ptr, ptr %10, align 8
  %26 = load ptr, ptr %0, align 8
  %27 = ptrtoint ptr %25 to i64
  %28 = ptrtoint ptr %26 to i64
  %29 = sub i64 %27, %28
  %sext = shl i64 %29, 30
  %30 = ashr i64 %sext, 32
  %31 = icmp slt i64 %indvars.iv.next, %30
  br i1 %31, label %.lr.ph, label %._crit_edge, !llvm.loop !4

._crit_edge:                                      ; preds = %.lr.ph, %.preheader
  call void @_ZNSt14basic_ofstreamIcSt11char_traitsIcEE5closeEv(ptr noundef nonnull align 8 dereferenceable(248) %3) #20
  br label %32

32:                                               ; preds = %._crit_edge, %19
  %.07 = xor i1 %9, true
  call void @_ZNSt14basic_ofstreamIcSt11char_traitsIcEED1Ev(ptr noundef nonnull align 8 dereferenceable(248) %3) #20
  ret i1 %.07
}